; Function Attrs: mustprogress uwtable
define void @_ZNK10aiMaterial7GetNameEv(ptr dead_on_unwind noalias writable writeonly sret(%struct.aiString) align 4 captures(none) initializes((0, 1028)) %0, ptr noundef nonnull readonly align 8 captures(none) dereferenceable(16) %1) local_unnamed_addr #3 align 2 {
  %3 = alloca ptr, align 8
  tail call void @llvm.memset.p0.i64(ptr noundef nonnull align 4 dereferenceable(1028) %0, i8 0, i64 1028, i1 false)
  call void @llvm.lifetime.start.p0(i64 8, ptr nonnull %3)
  store ptr @.str.12, ptr %3, align 8
  %4 = getelementptr inbounds nuw i8, ptr %1, i64 8
  %5 = load i32, ptr %4, align 8
  %.not60.i = icmp eq i32 %5, 0
  br i1 %.not60.i, label %_ZNK10aiMaterial3GetEPKcjjR8aiString.exit, label %.lr.ph.i

.lr.ph.i:                                         ; preds = %2
  %6 = load ptr, ptr %1, align 8
  %wide.trip.count84.i = zext i32 %5 to i64
  br label %.lr.ph.split.split.i

.lr.ph.split.split.i:                             ; preds = %21, %.lr.ph.i
  %indvars.iv.i = phi i64 [ %indvars.iv.next.i, %21 ], [ 0, %.lr.ph.i ]
  %7 = getelementptr inbounds nuw ptr, ptr %6, i64 %indvars.iv.i
  %8 = load ptr, ptr %7, align 8
  %.not.i = icmp eq ptr %8, null
  br i1 %.not.i, label %21, label %9

9:                                                ; preds = %.lr.ph.split.split.i
  %10 = getelementptr inbounds nuw i8, ptr %8, i64 4
  %11 = tail call i32 @strncmp(ptr noundef nonnull dereferenceable(1) %10, ptr noundef nonnull dereferenceable(10) @.str.12, i64 noundef 9) #23
  %12 = icmp eq i32 %11, 0
  br i1 %12, label %13, label %21

13:                                               ; preds = %9
  %14 = getelementptr inbounds nuw i8, ptr %8, i64 1028
  %15 = load i32, ptr %14, align 4
  %16 = icmp eq i32 %15, 0
  br i1 %16, label %17, label %21

17:                                               ; preds = %13
  %18 = getelementptr inbounds nuw i8, ptr %8, i64 1032
  %19 = load i32, ptr %18, align 8
  %20 = icmp eq i32 %19, 0
  br i1 %20, label %aiGetMaterialProperty.exit, label %21

21:                                               ; preds = %17, %13, %9, %.lr.ph.split.split.i
  %indvars.iv.next.i = add nuw nsw i64 %indvars.iv.i, 1
  %exitcond.not.i = icmp eq i64 %indvars.iv.next.i, %wide.trip.count84.i
  br i1 %exitcond.not.i, label %_ZNK10aiMaterial3GetEPKcjjR8aiString.exit, label %.lr.ph.split.split.i, !llvm.loop !3

aiGetMaterialProperty.exit:                       ; preds = %17
  %22 = getelementptr inbounds nuw i8, ptr %8, i64 1040
  %23 = load i32, ptr %22, align 8
  %24 = icmp eq i32 %23, 3
  br i1 %24, label %25, label %33

25:                                               ; preds = %aiGetMaterialProperty.exit
  %26 = getelementptr inbounds nuw i8, ptr %8, i64 1048
  %27 = load ptr, ptr %26, align 8
  %28 = load i32, ptr %27, align 4
  store i32 %28, ptr %0, align 4
  %29 = getelementptr inbounds nuw i8, ptr %0, i64 4
  %30 = getelementptr inbounds nuw i8, ptr %27, i64 4
  %31 = add i32 %28, 1
  %32 = zext i32 %31 to i64
  tail call void @llvm.memcpy.p0.p0.i64(ptr nonnull align 4 %29, ptr nonnull align 1 %30, i64 %32, i1 false)
  br label %_ZNK10aiMaterial3GetEPKcjjR8aiString.exit

33:                                               ; preds = %aiGetMaterialProperty.exit
  %34 = tail call noundef ptr @_ZN6Assimp13DefaultLogger3getEv()
  call void @_ZN6Assimp6Logger5errorIJRA18_KcRPS2_RA29_S2_EEEvDpOT_(ptr noundef nonnull align 8 dereferenceable(12) %34, ptr noundef nonnull align 1 dereferenceable(18) @.str, ptr noundef nonnull align 8 dereferenceable(8) %3, ptr noundef nonnull align 1 dereferenceable(29) @.str.3)
  br label %_ZNK10aiMaterial3GetEPKcjjR8aiString.exit

_ZNK10aiMaterial3GetEPKcjjR8aiString.exit:        ; preds = %21, %2, %25, %33
  call void @llvm.lifetime.end.p0(i64 8, ptr nonnull %3)
  ret void
}